; Function Attrs: nounwind uwtable
define internal range(i32 0, 2) i32 @ext_ems_parse_serverhello(ptr noundef readonly captures(none) %0, ptr readnone captures(none) %1, ptr noundef %2) #0 {
  %4 = icmp eq ptr %2, null
  br i1 %4, label %14, label %5

5:                                                ; preds = %3
  %6 = load i32, ptr %0, align 8, !tbaa !118
  %7 = icmp eq i32 %6, 768
  br i1 %7, label %14, label %8

8:                                                ; preds = %5
  %9 = tail call i64 @CBS_len(ptr noundef nonnull %2) #21
  %.not = icmp eq i64 %9, 0
  br i1 %.not, label %10, label %14

10:                                               ; preds = %8
  %11 = getelementptr inbounds nuw i8, ptr %0, i64 80
  %12 = load ptr, ptr %11, align 8, !tbaa !58
  %13 = getelementptr inbounds nuw i8, ptr %12, i64 536
  store i8 1, ptr %13, align 8, !tbaa !154
  br label %14

14:                                               ; preds = %5, %8, %3, %10
  %.0 = phi i32 [ 1, %10 ], [ 1, %3 ], [ 0, %8 ], [ 0, %5 ]
  ret i32 %.0
}